target datalayout = "e-m:e-p270:32:32-p271:32:32-p272:64:64-i64:64-i128:128-f80:128-n8:16:32:64-S128"
target triple = "x86_64-pc-linux-gnu"

@.str.331 = private unnamed_addr constant [28 x i8] c"Unified Diagnostic Services\00", align 1
@.str.332 = private unnamed_addr constant [4 x i8] c"UDS\00", align 1
@.str.333 = private unnamed_addr constant [4 x i8] c"uds\00", align 1
@proto_uds = internal global i32 0, align 4
@uds_handle = internal global ptr null, align 8
@.str.334 = private unnamed_addr constant [14 x i8] c"uds_over_doip\00", align 1
@uds_handle_doip = internal global ptr null, align 8
@.str.335 = private unnamed_addr constant [14 x i8] c"uds_over_hsfz\00", align 1
@uds_handle_hsfz = internal global ptr null, align 8
@.str.336 = private unnamed_addr constant [18 x i8] c"uds_over_iso10681\00", align 1
@uds_handle_iso10681 = internal global ptr null, align 8
@.str.337 = private unnamed_addr constant [18 x i8] c"uds_over_iso15765\00", align 1
@uds_handle_iso15765 = internal global ptr null, align 8
@.str.347 = private unnamed_addr constant [28 x i8] c"UDS Routine Identifier List\00", align 1
@.str.348 = private unnamed_addr constant [24 x i8] c"UDS_routine_identifiers\00", align 1
@uds_uat_routine_ids = internal global ptr null, align 8
@uds_uat_routine_id_num = internal global i32 0, align 4
@.str.349 = private unnamed_addr constant [21 x i8] c"_uds_routine_id_list\00", align 1
@.str.350 = private unnamed_addr constant [40 x i8] c"A table to define names of UDS Routines\00", align 1
@.str.355 = private unnamed_addr constant [25 x i8] c"UDS Data Identifier List\00", align 1
@.str.356 = private unnamed_addr constant [21 x i8] c"UDS_data_identifiers\00", align 1
@uds_uat_data_ids = internal global ptr null, align 8
@uds_uat_data_id_num = internal global i32 0, align 4
@.str.357 = private unnamed_addr constant [18 x i8] c"_uds_data_id_list\00", align 1
@.str.358 = private unnamed_addr constant [47 x i8] c"A table to define names of UDS Data Identifier\00", align 1
@.str.362 = private unnamed_addr constant [24 x i8] c"UDS DTC Identifier List\00", align 1
@.str.363 = private unnamed_addr constant [20 x i8] c"UDS_dtc_identifiers\00", align 1
@uds_uat_dtc_ids = internal global ptr null, align 8
@uds_uat_dtc_id_num = internal global i32 0, align 4
@.str.364 = private unnamed_addr constant [17 x i8] c"_uds_dtc_id_list\00", align 1
@.str.365 = private unnamed_addr constant [46 x i8] c"A table to define names of UDS DTC Identifier\00", align 1
@.str.369 = private unnamed_addr constant [14 x i8] c"UDS Addresses\00", align 1
@.str.370 = private unnamed_addr constant [25 x i8] c"UDS_diagnostic_addresses\00", align 1
@uds_uat_addresses = internal global ptr null, align 8
@uds_uat_addresses_num = internal global i32 0, align 4
@.str.371 = private unnamed_addr constant [18 x i8] c"_uds_address_list\00", align 1
@.str.372 = private unnamed_addr constant [17 x i8] c"UDS Address List\00", align 1
@.str.373 = private unnamed_addr constant [41 x i8] c"A table to define names of UDS Addresses\00", align 1
@.str.374 = private unnamed_addr constant [31 x i8] c"dissect_small_sids_with_obd_ii\00", align 1
@.str.375 = private unnamed_addr constant [64 x i8] c"Dissect Service Identifiers smaller 0x10 with OBD II Dissector?\00", align 1
@uds_dissect_small_sids_with_obd_ii = internal global i8 1, align 1
@.str.376 = private unnamed_addr constant [21 x i8] c"cert_decode_strategy\00", align 1
@.str.377 = private unnamed_addr constant [30 x i8] c"Certificate Decoding Strategy\00", align 1
@.str.378 = private unnamed_addr constant [45 x i8] c"Decide how the certificate bytes are decoded\00", align 1
@uds_certificate_decoding_config = internal global i32 -1, align 4
@.str.379 = private unnamed_addr constant [18 x i8] c"do_clear_info_col\00", align 1
@.str.380 = private unnamed_addr constant [33 x i8] c"Show only UDS in the Info Column\00", align 1
@.str.381 = private unnamed_addr constant [34 x i8] c"Show only UDS in the Info Column?\00", align 1
@uds_clear_info_col = internal global i8 0, align 1
@.str.382 = private unnamed_addr constant [14 x i8] c"UDS RDBI data\00", align 1
@heur_subdissector_list = internal global ptr null, align 8

; Function Attrs: null_pointer_is_valid sspstrong uwtable
define hidden void @proto_register_uds() #0 {
  %1 = alloca ptr, align 8
  %2 = alloca ptr, align 8
  %3 = alloca ptr, align 8
  %4 = alloca ptr, align 8
  %5 = alloca ptr, align 8
  call void @llvm.lifetime.start.p0(i64 8, ptr %1) #12
  call void @llvm.lifetime.start.p0(i64 8, ptr %2) #12
  call void @llvm.lifetime.start.p0(i64 8, ptr %3) #12
  call void @llvm.lifetime.start.p0(i64 8, ptr %4) #12
  call void @llvm.lifetime.start.p0(i64 8, ptr %5) #12
  %6 = call i32 @proto_register_protocol(ptr noundef @.str.331, ptr noundef @.str.332, ptr noundef @.str.333)
  store i32 %6, ptr @proto_uds, align 4
  %7 = load i32, ptr @proto_uds, align 4
  call void @proto_register_field_array(i32 noundef %7, ptr noundef @proto_register_uds.hf, i32 noundef 186)
  call void @proto_register_subtree_array(ptr noundef @proto_register_uds.ett, i32 noundef 15)
  %8 = load i32, ptr @proto_uds, align 4
  %9 = call ptr @register_dissector(ptr noundef @.str.333, ptr noundef @dissect_uds_no_data, i32 noundef %8)
  store ptr %9, ptr @uds_handle, align 8
  %10 = load i32, ptr @proto_uds, align 4
  %11 = call ptr @register_dissector(ptr noundef @.str.334, ptr noundef @dissect_uds_doip, i32 noundef %10)
  store ptr %11, ptr @uds_handle_doip, align 8
  %12 = load i32, ptr @proto_uds, align 4
  %13 = call ptr @register_dissector(ptr noundef @.str.335, ptr noundef @dissect_uds_hsfz, i32 noundef %12)
  store ptr %13, ptr @uds_handle_hsfz, align 8
  %14 = load i32, ptr @proto_uds, align 4
  %15 = call ptr @register_dissector(ptr noundef @.str.336, ptr noundef @dissect_uds_iso10681, i32 noundef %14)
  store ptr %15, ptr @uds_handle_iso10681, align 8
  %16 = load i32, ptr @proto_uds, align 4
  %17 = call ptr @register_dissector(ptr noundef @.str.337, ptr noundef @dissect_uds_iso15765, i32 noundef %16)
  store ptr %17, ptr @uds_handle_iso15765, align 8
  %18 = load i32, ptr @proto_uds, align 4
  %19 = call ptr @prefs_register_protocol(i32 noundef %18, ptr noundef null)
  store ptr %19, ptr %1, align 8
  %20 = call ptr @uat_new(ptr noundef @.str.347, i64 noundef 16, ptr noundef @.str.348, i1 noundef zeroext true, ptr noundef @uds_uat_routine_ids, ptr noundef @uds_uat_routine_id_num, i32 noundef 1, ptr noundef null, ptr noundef @copy_generic_one_id_string_cb, ptr noundef @update_generic_addr_16bit_id_16bit, ptr noundef @free_generic_one_id_string_cb, ptr noundef @post_update_uds_routine_cb, ptr noundef @reset_update_uds_routine_cb, ptr noundef @proto_register_uds.uds_routine_id_uat_fields)
  store ptr %20, ptr %2, align 8
  %21 = load ptr, ptr %1, align 8
  %22 = load ptr, ptr %2, align 8
  call void @prefs_register_uat_preference(ptr noundef %21, ptr noundef @.str.349, ptr noundef @.str.347, ptr noundef @.str.350, ptr noundef %22)
  %23 = call ptr @uat_new(ptr noundef @.str.355, i64 noundef 16, ptr noundef @.str.356, i1 noundef zeroext true, ptr noundef @uds_uat_data_ids, ptr noundef @uds_uat_data_id_num, i32 noundef 1, ptr noundef null, ptr noundef @copy_generic_one_id_string_cb, ptr noundef @update_generic_addr_16bit_id_16bit, ptr noundef @free_generic_one_id_string_cb, ptr noundef @post_update_uds_data_cb, ptr noundef @reset_update_uds_data_cb, ptr noundef @proto_register_uds.uds_data_id_uat_fields)
  store ptr %23, ptr %3, align 8
  %24 = load ptr, ptr %1, align 8
  %25 = load ptr, ptr %3, align 8
  call void @prefs_register_uat_preference(ptr noundef %24, ptr noundef @.str.357, ptr noundef @.str.355, ptr noundef @.str.358, ptr noundef %25)
  %26 = call ptr @uat_new(ptr noundef @.str.362, i64 noundef 16, ptr noundef @.str.363, i1 noundef zeroext true, ptr noundef @uds_uat_dtc_ids, ptr noundef @uds_uat_dtc_id_num, i32 noundef 1, ptr noundef null, ptr noundef @copy_generic_one_id_string_cb, ptr noundef @update_generic_addr_16bit_id_24bit, ptr noundef @free_generic_one_id_string_cb, ptr noundef @post_update_uds_dtc_cb, ptr noundef @reset_update_uds_dtc_cb, ptr noundef @proto_register_uds.uds_dtc_id_uat_fields)
  store ptr %26, ptr %4, align 8
  %27 = load ptr, ptr %1, align 8
  %28 = load ptr, ptr %4, align 8
  call void @prefs_register_uat_preference(ptr noundef %27, ptr noundef @.str.364, ptr noundef @.str.362, ptr noundef @.str.365, ptr noundef %28)
  %29 = call ptr @uat_new(ptr noundef @.str.369, i64 noundef 16, ptr noundef @.str.370, i1 noundef zeroext true, ptr noundef @uds_uat_addresses, ptr noundef @uds_uat_addresses_num, i32 noundef 1, ptr noundef null, ptr noundef @copy_address_string_cb, ptr noundef @update_address_string_cb, ptr noundef @free_address_string_cb, ptr noundef @post_update_uds_address_cb, ptr noundef @reset_uds_address_cb, ptr noundef @proto_register_uds.uds_address_name_uat_fields)
  store ptr %29, ptr %5, align 8
  %30 = load ptr, ptr %1, align 8
  %31 = load ptr, ptr %5, align 8
  call void @prefs_register_uat_preference(ptr noundef %30, ptr noundef @.str.371, ptr noundef @.str.372, ptr noundef @.str.373, ptr noundef %31)
  %32 = load ptr, ptr %1, align 8
  call void @prefs_register_bool_preference(ptr noundef %32, ptr noundef @.str.374, ptr noundef @.str.375, ptr noundef @.str.375, ptr noundef @uds_dissect_small_sids_with_obd_ii)
  %33 = load ptr, ptr %1, align 8
  call void @prefs_register_enum_preference(ptr noundef %33, ptr noundef @.str.376, ptr noundef @.str.377, ptr noundef @.str.378, ptr noundef @uds_certificate_decoding_config, ptr noundef @certificate_decoding_vals, i1 noundef zeroext false)
  %34 = load ptr, ptr %1, align 8
  call void @prefs_register_bool_preference(ptr noundef %34, ptr noundef @.str.379, ptr noundef @.str.380, ptr noundef @.str.381, ptr noundef @uds_clear_info_col)
  %35 = load i32, ptr @proto_uds, align 4
  %36 = call ptr @register_heur_dissector_list_with_description(ptr noundef @.str.333, ptr noundef @.str.382, i32 noundef %35)
  store ptr %36, ptr @heur_subdissector_list, align 8
  call void @llvm.lifetime.end.p0(i64 8, ptr %5) #12
  call void @llvm.lifetime.end.p0(i64 8, ptr %4) #12
  call void @llvm.lifetime.end.p0(i64 8, ptr %3) #12
  call void @llvm.lifetime.end.p0(i64 8, ptr %2) #12
  call void @llvm.lifetime.end.p0(i64 8, ptr %1) #12
  ret void
}