; Function Attrs: null_pointer_is_valid sspstrong uwtable
define hidden void @proto_register_uds() local_unnamed_addr #0 {
  %1 = tail call i32 @proto_register_protocol(ptr noundef nonnull @.str.331, ptr noundef nonnull @.str.332, ptr noundef nonnull @.str.333)
  store i32 %1, ptr @proto_uds, align 4
  tail call void @proto_register_field_array(i32 noundef %1, ptr noundef nonnull @proto_register_uds.hf, i32 noundef 186)
  tail call void @proto_register_subtree_array(ptr noundef nonnull @proto_register_uds.ett, i32 noundef 15)
  %2 = load i32, ptr @proto_uds, align 4
  %3 = tail call ptr @register_dissector(ptr noundef nonnull @.str.333, ptr noundef nonnull @dissect_uds_no_data, i32 noundef %2)
  store ptr %3, ptr @uds_handle, align 8
  %4 = load i32, ptr @proto_uds, align 4
  %5 = tail call ptr @register_dissector(ptr noundef nonnull @.str.334, ptr noundef nonnull @dissect_uds_doip, i32 noundef %4)
  store ptr %5, ptr @uds_handle_doip, align 8
  %6 = load i32, ptr @proto_uds, align 4
  %7 = tail call ptr @register_dissector(ptr noundef nonnull @.str.335, ptr noundef nonnull @dissect_uds_hsfz, i32 noundef %6)
  store ptr %7, ptr @uds_handle_hsfz, align 8
  %8 = load i32, ptr @proto_uds, align 4
  %9 = tail call ptr @register_dissector(ptr noundef nonnull @.str.336, ptr noundef nonnull @dissect_uds_iso10681, i32 noundef %8)
  store ptr %9, ptr @uds_handle_iso10681, align 8
  %10 = load i32, ptr @proto_uds, align 4
  %11 = tail call ptr @register_dissector(ptr noundef nonnull @.str.337, ptr noundef nonnull @dissect_uds_iso15765, i32 noundef %10)
  store ptr %11, ptr @uds_handle_iso15765, align 8
  %12 = load i32, ptr @proto_uds, align 4
  %13 = tail call ptr @prefs_register_protocol(i32 noundef %12, ptr noundef null)
  %14 = tail call ptr @uat_new(ptr noundef nonnull @.str.347, i64 noundef 16, ptr noundef nonnull @.str.348, i1 noundef zeroext true, ptr noundef nonnull @uds_uat_routine_ids, ptr noundef nonnull @uds_uat_routine_id_num, i32 noundef 1, ptr noundef null, ptr noundef nonnull @copy_generic_one_id_string_cb, ptr noundef nonnull @update_generic_addr_16bit_id_16bit, ptr noundef nonnull @free_generic_one_id_string_cb, ptr noundef nonnull @post_update_uds_routine_cb, ptr noundef nonnull @reset_update_uds_routine_cb, ptr noundef nonnull @proto_register_uds.uds_routine_id_uat_fields)
  tail call void @prefs_register_uat_preference(ptr noundef %13, ptr noundef nonnull @.str.349, ptr noundef nonnull @.str.347, ptr noundef nonnull @.str.350, ptr noundef %14)
  %15 = tail call ptr @uat_new(ptr noundef nonnull @.str.355, i64 noundef 16, ptr noundef nonnull @.str.356, i1 noundef zeroext true, ptr noundef nonnull @uds_uat_data_ids, ptr noundef nonnull @uds_uat_data_id_num, i32 noundef 1, ptr noundef null, ptr noundef nonnull @copy_generic_one_id_string_cb, ptr noundef nonnull @update_generic_addr_16bit_id_16bit, ptr noundef nonnull @free_generic_one_id_string_cb, ptr noundef nonnull @post_update_uds_data_cb, ptr noundef nonnull @reset_update_uds_data_cb, ptr noundef nonnull @proto_register_uds.uds_data_id_uat_fields)
  tail call void @prefs_register_uat_preference(ptr noundef %13, ptr noundef nonnull @.str.357, ptr noundef nonnull @.str.355, ptr noundef nonnull @.str.358, ptr noundef %15)
  %16 = tail call ptr @uat_new(ptr noundef nonnull @.str.362, i64 noundef 16, ptr noundef nonnull @.str.363, i1 noundef zeroext true, ptr noundef nonnull @uds_uat_dtc_ids, ptr noundef nonnull @uds_uat_dtc_id_num, i32 noundef 1, ptr noundef null, ptr noundef nonnull @copy_generic_one_id_string_cb, ptr noundef nonnull @update_generic_addr_16bit_id_24bit, ptr noundef nonnull @free_generic_one_id_string_cb, ptr noundef nonnull @post_update_uds_dtc_cb, ptr noundef nonnull @reset_update_uds_dtc_cb, ptr noundef nonnull @proto_register_uds.uds_dtc_id_uat_fields)
  tail call void @prefs_register_uat_preference(ptr noundef %13, ptr noundef nonnull @.str.364, ptr noundef nonnull @.str.362, ptr noundef nonnull @.str.365, ptr noundef %16)
  %17 = tail call ptr @uat_new(ptr noundef nonnull @.str.369, i64 noundef 16, ptr noundef nonnull @.str.370, i1 noundef zeroext true, ptr noundef nonnull @uds_uat_addresses, ptr noundef nonnull @uds_uat_addresses_num, i32 noundef 1, ptr noundef null, ptr noundef nonnull @copy_address_string_cb, ptr noundef nonnull @update_address_string_cb, ptr noundef nonnull @free_address_string_cb, ptr noundef nonnull @post_update_uds_address_cb, ptr noundef nonnull @reset_uds_address_cb, ptr noundef nonnull @proto_register_uds.uds_address_name_uat_fields)
  tail call void @prefs_register_uat_preference(ptr noundef %13, ptr noundef nonnull @.str.371, ptr noundef nonnull @.str.372, ptr noundef nonnull @.str.373, ptr noundef %17)
  tail call void @prefs_register_bool_preference(ptr noundef %13, ptr noundef nonnull @.str.374, ptr noundef nonnull @.str.375, ptr noundef nonnull @.str.375, ptr noundef nonnull @uds_dissect_small_sids_with_obd_ii)
  tail call void @prefs_register_enum_preference(ptr noundef %13, ptr noundef nonnull @.str.376, ptr noundef nonnull @.str.377, ptr noundef nonnull @.str.378, ptr noundef nonnull @uds_certificate_decoding_config, ptr noundef nonnull @certificate_decoding_vals, i1 noundef zeroext false)
  tail call void @prefs_register_bool_preference(ptr noundef %13, ptr noundef nonnull @.str.379, ptr noundef nonnull @.str.380, ptr noundef nonnull @.str.381, ptr noundef nonnull @uds_clear_info_col)
  %18 = load i32, ptr @proto_uds, align 4
  %19 = tail call ptr @register_heur_dissector_list_with_description(ptr noundef nonnull @.str.333, ptr noundef nonnull @.str.382, i32 noundef %18)
  store ptr %19, ptr @heur_subdissector_list, align 8
  ret void
}